(dp0
S'Tournament'
p1
(lp2
I5
aI5
aI5
aI5
aI5
aI5
aI5
aI5
aI5
aI5
aI5
aI5
aI5
aI5
aI5
aI5
aI5
aI5
aI5
aI5
aI5
aI5
aI5
aI5
aI5
aI5
aI5
aI5
aI5
aI5
aI5
aI5
aI5
aI5
aI5
aI5
aI5
aI5
aI5
aI5
aI5
aI5
aI5
aI5
aI5
aI5
aI5
aI5
aI5
aI5
aI5
aI5
aI5
aI5
aI5
aI5
aI5
aI5
aI5
aI5
aI5
aI5
aI5
aI5
aI5
aI5
aI5
aI5
aI5
aI5
aI5
aI5
aI5
aI5
aI5
aI5
aI5
aI5
aI5
aI5
aI5
aI5
aI5
aI5
aI5
aI5
aI5
aI5
aI5
aI5
aI5
aI5
aI5
aI5
aI5
aI5
aI5
aI5
aI5
aI5
aI5
aI5
aI5
aI5
aI5
aI5
aI5
aI5
aI5
aI5
asS'Iteration'
p3
(lp4
I150
aI150
aI150
aI150
aI150
aI150
aI150
aI150
aI150
aI150
aI150
aI150
aI150
aI150
aI150
aI150
aI150
aI150
aI150
aI150
aI150
aI150
aI150
aI150
aI150
aI150
aI150
aI150
aI150
aI150
aI150
aI150
aI150
aI150
aI150
aI150
aI150
aI150
aI150
aI150
aI150
aI150
aI150
aI150
aI150
aI150
aI150
aI150
aI150
aI150
aI150
aI150
aI150
aI150
aI150
aI150
aI150
aI150
aI150
aI150
aI150
aI150
aI150
aI150
aI150
aI150
aI150
aI150
aI150
aI150
aI150
aI150
aI150
aI150
aI150
aI150
aI150
aI150
aI150
aI150
aI150
aI150
aI150
aI150
aI150
aI150
aI150
aI150
aI150
aI150
aI150
aI150
aI150
aI150
aI150
aI150
aI150
aI150
aI150
aI150
aI150
aI150
aI150
aI150
aI150
aI150
aI150
aI150
aI150
aI150
asS'Elitism'
p5
(lp6
I5
aI5
aI5
aI5
aI5
aI5
aI5
aI5
aI5
aI5
aI5
aI5
aI5
aI5
aI5
aI5
aI5
aI5
aI5
aI5
aI5
aI5
aI5
aI5
aI5
aI5
aI5
aI5
aI5
aI5
aI5
aI5
aI5
aI5
aI5
aI5
aI5
aI5
aI5
aI5
aI5
aI5
aI5
aI5
aI5
aI5
aI5
aI5
aI5
aI5
aI5
aI5
aI5
aI5
aI5
aI5
aI5
aI5
aI5
aI5
aI5
aI5
aI5
aI5
aI5
aI5
aI5
aI5
aI5
aI5
aI5
aI5
aI5
aI5
aI5
aI5
aI5
aI5
aI5
aI5
aI5
aI5
aI5
aI5
aI5
aI5
aI5
aI5
aI5
aI5
aI5
aI5
aI5
aI5
aI5
aI5
aI5
aI5
aI5
aI5
aI5
aI5
aI5
aI5
aI5
aI5
aI5
aI5
aI5
aI5
asS'Score'
p7
(lp8
cnumpy.core.multiarray
scalar
p9
(cnumpy
dtype
p10
(S'f8'
p11
I0
I1
tp12
Rp13
(I3
S'<'
p14
NNNI-1
I-1
I0
tp15
bS'\xcc\xa6\x93\xe8\x84\xa6\xb3\xbf'
p16
tp17
Rp18
ag9
(g13
S'\x89\xb73W\x08C\xb8\xbf'
p19
tp20
Rp21
ag9
(g13
S'\x10_<\x11\x13D\xcd\xbf'
p22
tp23
Rp24
ag9
(g13
S'\xee\x80N\xef\xc7}\xc1\xbf'
p25
tp26
Rp27
ag9
(g13
S'\xdc\n\xaeu\x1b\x04\xc0\xbf'
p28
tp29
Rp30
ag9
(g13
S'eL:a\xd9\xdf\xb8\xbf'
p31
tp32
Rp33
ag9
(g13
S'D\x92PL\x8f;\xa8\xbf'
p34
tp35
Rp36
ag9
(g13
S'Q\t\xf8\xdf\x9c\xc2\xc3\xbf'
p37
tp38
Rp39
ag9
(g13
S'(\xc3\xce\xdc\xb5A\xb9\xbf'
p40
tp41
Rp42
ag9
(g13
S'\xa8S\xad\x1dJ9\xbd\xbf'
p43
tp44
Rp45
ag9
(g13
S'\xf2\xcd\x9f[2\x12\xbb\xbf'
p46
tp47
Rp48
ag9
(g13
S'.u\x11\xdc\xbb;\xb3\xbf'
p49
tp50
Rp51
ag9
(g13
S'\xd0M\x9cJa\x8a\x84?'
p52
tp53
Rp54
ag9
(g13
S'*\x19\x87\x1f\xd8\x8d\xbb\xbf'
p55
tp56
Rp57
ag9
(g13
S'\x1a\xa2\xc6=\n\x9b\xa1\xbf'
p58
tp59
Rp60
ag9
(g13
S'\xa8^\xa0\xdcTa\x8d\xbf'
p61
tp62
Rp63
ag9
(g13
S'=\xc6\x85B\xda\x05\xa3\xbf'
p64
tp65
Rp66
ag9
(g13
S'\x06\xe3^5u\xa8\xa4\xbf'
p67
tp68
Rp69
ag9
(g13
S'\x8e\x9eO.\xa6\x9d\xba\xbf'
p70
tp71
Rp72
ag9
(g13
S'N77\x16\xb6\t\xb3\xbf'
p73
tp74
Rp75
ag9
(g13
S'@h9o\xb0\xf7\x9d?'
p76
tp77
Rp78
ag9
(g13
S'|V\xde\x8a6\xd3\x9b\xbf'
p79
tp80
Rp81
ag9
(g13
S'\xfcX|\x7f\xd6\x08\x99?'
p82
tp83
Rp84
ag9
(g13
S'\xed N8\xc4\xfa\xb0\xbf'
p85
tp86
Rp87
ag9
(g13
S'\xf8\x05\x00\x08\xa8\xc8\xb7\xbf'
p88
tp89
Rp90
ag9
(g13
S'\x80\x9dc\xc7\x9d\x90p?'
p91
tp92
Rp93
ag9
(g13
S'\xba\xc0[\xed\xf0&\xaf\xbf'
p94
tp95
Rp96
ag9
(g13
S'\xe4GB\xf4\x95\xd1\x95?'
p97
tp98
Rp99
ag9
(g13
S'R2_\x9f\xaca\xa3\xbf'
p100
tp101
Rp102
ag9
(g13
S'\xd0 \xe5\x95\xe5\xc6\x8f\xbf'
p103
tp104
Rp105
ag9
(g13
S'\xd8!\xf9zk\x88\x94\xbf'
p106
tp107
Rp108
ag9
(g13
S'd\xa6d\xe7\x8f\xa2\xa2\xbf'
p109
tp110
Rp111
ag9
(g13
S"\xc4'D}\xa4\xbb\xa0\xbf"
p112
tp113
Rp114
ag9
(g13
S'\xdc\xfa\x0e\x8d?j\xa2\xbf'
p115
tp116
Rp117
ag9
(g13
S'\x88\xe4\x1f\x1bp\x90\xb4\xbf'
p118
tp119
Rp120
ag9
(g13
S'pz:T~\x89\xaa\xbf'
p121
tp122
Rp123
ag9
(g13
S'\xecQ_\xb3\xbc\x07\xaa\xbf'
p124
tp125
Rp126
ag9
(g13
S'D\xa2{\xd2C\x87\xa8\xbf'
p127
tp128
Rp129
ag9
(g13
S'\xec\x15\x8b\xbc\x1d\xdc\xa4?'
p130
tp131
Rp132
ag9
(g13
S'jC\xc0BD?\xb3\xbf'
p133
tp134
Rp135
ag9
(g13
S'\xa4\x8f\x8d\xb3\x93\xca\x9d\xbf'
p136
tp137
Rp138
ag9
(g13
S'\x9c%I1\x8a\x99\xb8\xbf'
p139
tp140
Rp141
ag9
(g13
S'\x18\xa6\xbf\xffC^\x86\xbf'
p142
tp143
Rp144
ag9
(g13
S'\xc0,\xb5\\\xa0Ba?'
p145
tp146
Rp147
ag9
(g13
S'\x00\xa0\xbai\x993\x89?'
p148
tp149
Rp150
ag9
(g13
S'\xd1Sd\x84\xe45\xb9\xbf'
p151
tp152
Rp153
ag9
(g13
S'p\xc1\x08RF"\x83\xbf'
p154
tp155
Rp156
ag9
(g13
S'dP\xfcJ\x88\x87\xab?'
p157
tp158
Rp159
ag9
(g13
S'j\x95\x11\x93\xd1\x9d\xb4\xbf'
p160
tp161
Rp162
ag9
(g13
S'\xc0\xb1f\x1fC\x9e\x94?'
p163
tp164
Rp165
ag9
(g13
S'\xf8\xd4\x1b\x875\x01\xa1?'
p166
tp167
Rp168
ag9
(g13
S'@\xc0\xc4\xd7\x0e\xad\x81\xbf'
p169
tp170
Rp171
ag9
(g13
S':^\x8b<K\x83\xaa\xbf'
p172
tp173
Rp174
ag9
(g13
S'\x9c9=9\x17I\x93?'
p175
tp176
Rp177
ag9
(g13
S'\xf0w\xc9T\xc8<\x83?'
p178
tp179
Rp180
ag9
(g13
S'\x80\xfb,U\xf7\xf3\xa5?'
p181
tp182
Rp183
ag9
(g13
S'P\xa6\x03B\x04\x00\x8f?'
p184
tp185
Rp186
ag9
(g13
S'\x04\x88\x9d\x01\x08\x98\xb0\xbf'
p187
tp188
Rp189
ag9
(g13
S'\xc4dtg\xc2\x02\x96\xbf'
p190
tp191
Rp192
ag9
(g13
S'\x06\xc2H\xbf\xfe5\xa3\xbf'
p193
tp194
Rp195
ag9
(g13
S'tU\xf0\xf69\xe8\x94?'
p196
tp197
Rp198
ag9
(g13
S'\xd0~\x15\xdb\xaa\x02\x96\xbf'
p199
tp200
Rp201
ag9
(g13
S'\xa8\x118\xd1V\x93\x86\xbf'
p202
tp203
Rp204
ag9
(g13
S'p\x8cc\x19\xf0l\xa1\xbf'
p205
tp206
Rp207
ag9
(g13
S'\x80\xfaO\xd3\x192y?'
p208
tp209
Rp210
ag9
(g13
S',\xb1\xe0Ci\xef\xab\xbf'
p211
tp212
Rp213
ag9
(g13
S'@\x88&\xbdn\x84\x9b?'
p214
tp215
Rp216
ag9
(g13
S'\x10\xbf\x9d\xf8\xad\x7f\x99\xbf'
p217
tp218
Rp219
ag9
(g13
S'\xf0\xf8\xb6\x95"\xf9\xa4\xbf'
p220
tp221
Rp222
ag9
(g13
S'\xf4\xbdwM]\xca\x94\xbf'
p223
tp224
Rp225
ag9
(g13
S'n\x152l\x16D\xa5\xbf'
p226
tp227
Rp228
ag9
(g13
S'\x18\xdb<*\x86b\xaf\xbf'
p229
tp230
Rp231
ag9
(g13
S'\xc0\x9c\xe6\x9atM\x90?'
p232
tp233
Rp234
ag9
(g13
S'@\x81\x141s.S?'
p235
tp236
Rp237
ag9
(g13
S'\x98\xbc\xd1@\xcb\x07\xa9\xbf'
p238
tp239
Rp240
ag9
(g13
S'\xe0B@!t{x?'
p241
tp242
Rp243
ag9
(g13
S'\xacy\xachdd\x9d?'
p244
tp245
Rp246
ag9
(g13
S'@m\xd4]~,^?'
p247
tp248
Rp249
ag9
(g13
S'\xfc\x85\x1f\x85\xb4\x0b\xa5?'
p250
tp251
Rp252
ag9
(g13
S'\xb8\x9a\xd2C2 \x83?'
p253
tp254
Rp255
ag9
(g13
S"|'\x02<\nH\x95\xbf"
p256
tp257
Rp258
ag9
(g13
S'\\=2\xa0a\xcd\xa2?'
p259
tp260
Rp261
ag9
(g13
S'iq\t^?\x9e\xb1\xbf'
p262
tp263
Rp264
ag9
(g13
S'Rl\x1e{\xf7\x8a\xb4\xbf'
p265
tp266
Rp267
ag9
(g13
S'$,PE\xcb<\x96?'
p268
tp269
Rp270
ag9
(g13
S'h.\xd9\x9a\xe8\x91\x9f\xbf'
p271
tp272
Rp273
ag9
(g13
S'\x1e\x8eTr\x92t\xa0?'
p274
tp275
Rp276
ag9
(g13
S'\xc0\xd4tkx\xe1h\xbf'
p277
tp278
Rp279
ag9
(g13
S'\xf0f\xd6/Fcz\xbf'
p280
tp281
Rp282
ag9
(g13
S'H0\x01M\x877\xac\xbf'
p283
tp284
Rp285
ag9
(g13
S'\xa0#\xb0\x96~\x11\x81\xbf'
p286
tp287
Rp288
ag9
(g13
S'$O<\x89h\xc6\xa4?'
p289
tp290
Rp291
ag9
(g13
S'xf\x83+\xe7\xd0\xa0\xbf'
p292
tp293
Rp294
ag9
(g13
S'B-)U\xa0\xfb\xa9\xbf'
p295
tp296
Rp297
ag9
(g13
S'vA\x88\xe8\x1b\xc6\xae?'
p298
tp299
Rp300
ag9
(g13
S'\xd0\xc2\x04\x89\xfd\xe6\x97?'
p301
tp302
Rp303
ag9
(g13
S'\xcf\xec\xc9\x17+\x81\xb7\xbf'
p304
tp305
Rp306
ag9
(g13
S'p\xc5\xb2\x8b\x80\x13{?'
p307
tp308
Rp309
ag9
(g13
S'nE\x83\xfa\x95S\xa1\xbf'
p310
tp311
Rp312
ag9
(g13
S'\x0c-_\xf5\xf8=\xa0\xbf'
p313
tp314
Rp315
ag9
(g13
S'Y\xa7\xac&\x1ck\xb3\xbf'
p316
tp317
Rp318
ag9
(g13
S'\x00\xf1\xf2.\x9cuj?'
p319
tp320
Rp321
ag9
(g13
S'@ys{\xa9j\x8d\xbf'
p322
tp323
Rp324
ag9
(g13
S'\x88\x19\xf1\xbd\xf1\x02\xa6?'
p325
tp326
Rp327
ag9
(g13
S'\xd0t\xf8\x85\xfea\xa1?'
p328
tp329
Rp330
ag9
(g13
S'\x8f\xd9\x1f\x1d\x7fM\xb2\xbf'
p331
tp332
Rp333
ag9
(g13
S'dV[\xf6\xfd\xe2\x98?'
p334
tp335
Rp336
ag9
(g13
S'@<\x81]b\xff\xa7\xbf'
p337
tp338
Rp339
ag9
(g13
S'\x00\xd2C[\x1b\x01\xa3\xbf'
p340
tp341
Rp342
ag9
(g13
S'\x18\xb8uf\x9eq\xa6\xbf'
p343
tp344
Rp345
asS'Mutation'
p346
(lp347
F0.05
aF0.05
aF0.05
aF0.05
aF0.05
aF0.05
aF0.05
aF0.05
aF0.05
aF0.05
aF0.05
aF0.05
aF0.05
aF0.05
aF0.05
aF0.05
aF0.05
aF0.05
aF0.05
aF0.05
aF0.05
aF0.05
aF0.05
aF0.05
aF0.05
aF0.05
aF0.05
aF0.05
aF0.05
aF0.05
aF0.05
aF0.05
aF0.05
aF0.05
aF0.05
aF0.05
aF0.05
aF0.05
aF0.05
aF0.05
aF0.05
aF0.05
aF0.05
aF0.05
aF0.05
aF0.05
aF0.05
aF0.05
aF0.05
aF0.05
aF0.05
aF0.05
aF0.05
aF0.05
aF0.05
aF0.05
aF0.05
aF0.05
aF0.05
aF0.05
aF0.05
aF0.05
aF0.05
aF0.05
aF0.05
aF0.05
aF0.05
aF0.05
aF0.05
aF0.05
aF0.05
aF0.05
aF0.05
aF0.05
aF0.05
aF0.05
aF0.05
aF0.05
aF0.05
aF0.05
aF0.05
aF0.05
aF0.05
aF0.05
aF0.05
aF0.05
aF0.05
aF0.05
aF0.05
aF0.05
aF0.05
aF0.05
aF0.05
aF0.05
aF0.05
aF0.05
aF0.05
aF0.05
aF0.05
aF0.05
aF0.05
aF0.05
aF0.05
aF0.05
aF0.05
aF0.05
aF0.05
aF0.05
aF0.05
aF0.05
asS'Population'
p348
(lp349
I10
aI10
aI10
aI10
aI10
aI10
aI10
aI10
aI10
aI10
aI30
aI30
aI30
aI30
aI30
aI30
aI30
aI30
aI30
aI30
aI50
aI50
aI50
aI50
aI50
aI50
aI50
aI50
aI50
aI50
aI70
aI70
aI70
aI70
aI70
aI70
aI70
aI70
aI70
aI70
aI90
aI90
aI90
aI90
aI90
aI90
aI90
aI90
aI90
aI90
aI110
aI110
aI110
aI110
aI110
aI110
aI110
aI110
aI110
aI110
aI130
aI130
aI130
aI130
aI130
aI130
aI130
aI130
aI130
aI130
aI150
aI150
aI150
aI150
aI150
aI150
aI150
aI150
aI150
aI150
aI170
aI170
aI170
aI170
aI170
aI170
aI170
aI170
aI170
aI170
aI190
aI190
aI190
aI190
aI190
aI190
aI190
aI190
aI190
aI190
aI210
aI210
aI210
aI210
aI210
aI210
aI210
aI210
aI210
aI210
as.